target datalayout = "e-m:e-p270:32:32-p271:32:32-p272:64:64-i64:64-i128:128-f80:128-n8:16:32:64-S128"
target triple = "x86_64-pc-linux-gnu"

; Function Attrs: mustprogress uwtable
define noundef i32 @_ZNK2cv9Feature2D11defaultNormEv(ptr noundef nonnull align 8 dereferenceable(8) %0) unnamed_addr #4 align 2 {
  %2 = alloca ptr, align 8
  %3 = alloca i32, align 4
  store ptr %0, ptr %2, align 8, !tbaa !3
  %4 = load ptr, ptr %2, align 8
  call void @llvm.lifetime.start.p0(i64 4, ptr %3) #17
  %5 = load ptr, ptr %4, align 8, !tbaa !10
  %6 = getelementptr inbounds ptr, ptr %5, i64 14
  %7 = load ptr, ptr %6, align 8
  %8 = call noundef i32 %7(ptr noundef nonnull align 8 dereferenceable(8) %4)
  store i32 %8, ptr %3, align 4, !tbaa !27
  %9 = load i32, ptr %3, align 4, !tbaa !27
  %10 = icmp eq i32 %9, 0
  %11 = select i1 %10, i32 6, i32 4
  call void @llvm.lifetime.end.p0(i64 4, ptr %3) #17
  ret i32 %11
}