; Function Attrs: mustprogress uwtable
define noundef range(i32 4, 7) i32 @_ZNK2cv9Feature2D11defaultNormEv(ptr noundef nonnull align 8 dereferenceable(8) %0) unnamed_addr #5 align 2 {
  %2 = load ptr, ptr %0, align 8, !tbaa !3
  %3 = getelementptr inbounds nuw i8, ptr %2, i64 112
  %4 = load ptr, ptr %3, align 8
  %5 = tail call noundef i32 %4(ptr noundef nonnull align 8 dereferenceable(8) %0)
  %6 = icmp eq i32 %5, 0
  %7 = select i1 %6, i32 6, i32 4
  ret i32 %7
}